; ModuleID = '21/295.c'
source_filename = "21/295.c"
target datalayout = "e-m:e-p270:32:32-p271:32:32-p272:64:64-i64:64-f80:128-n8:16:32:64-S128"
target triple = "x86_64-pc-linux-gnu"

@.str = private unnamed_addr constant [3 x i8] c"%d\00", align 1
@.str.1 = private unnamed_addr constant [4 x i8] c",%d\00", align 1

; Function Attrs: noinline nounwind uwtable
define dso_local void @main() #0 {
  %1 = alloca i32, align 4
  %2 = alloca i32, align 4
  %3 = alloca i32, align 4
  %4 = alloca i32, align 4
  %5 = alloca i32, align 4
  %6 = alloca [500 x i32], align 16
  %7 = alloca [300 x i32], align 16
  %8 = alloca double, align 8
  %9 = alloca double, align 8
  %10 = alloca double, align 8
  %11 = alloca double, align 8
  store i32 0, i32* %2, align 4
  store i32 1, i32* %3, align 4
  store i32 0, i32* %4, align 4
  store i32 0, i32* %5, align 4
  %12 = bitcast [500 x i32]* %6 to i8*
  call void @llvm.memset.p0i8.i64(i8* align 16 %12, i8 0, i64 2000, i1 false)
  %13 = bitcast [300 x i32]* %7 to i8*
  call void @llvm.memset.p0i8.i64(i8* align 16 %13, i8 0, i64 1200, i1 false)
  store double 0.000000e+00, double* %8, align 8
  store double 0.000000e+00, double* %9, align 8
  store double 0.000000e+00, double* %10, align 8
  store double 0.000000e+00, double* %11, align 8
  %14 = call i32 (i8*, ...) @__isoc99_scanf(i8* getelementptr inbounds ([3 x i8], [3 x i8]* @.str, i64 0, i64 0), i32* %1)
  store i32 0, i32* %2, align 4
  br label %15

15:                                               ; preds = %31, %0
  %16 = load i32, i32* %2, align 4
  %17 = load i32, i32* %1, align 4
  %18 = icmp slt i32 %16, %17
  br i1 %18, label %19, label %34

19:                                               ; preds = %15
  %20 = load i32, i32* %2, align 4
  %21 = sext i32 %20 to i64
  %22 = getelementptr inbounds [500 x i32], [500 x i32]* %6, i64 0, i64 %21
  %23 = call i32 (i8*, ...) @__isoc99_scanf(i8* getelementptr inbounds ([3 x i8], [3 x i8]* @.str, i64 0, i64 0), i32* %22)
  %24 = load double, double* %8, align 8
  %25 = load i32, i32* %2, align 4
  %26 = sext i32 %25 to i64
  %27 = getelementptr inbounds [500 x i32], [500 x i32]* %6, i64 0, i64 %26
  %28 = load i32, i32* %27, align 4
  %29 = sitofp i32 %28 to double
  %30 = fadd double %24, %29
  store double %30, double* %8, align 8
  br label %31

31:                                               ; preds = %19
  %32 = load i32, i32* %2, align 4
  %33 = add nsw i32 %32, 1
  store i32 %33, i32* %2, align 4
  br label %15

34:                                               ; preds = %15
  %35 = load double, double* %8, align 8
  %36 = load i32, i32* %1, align 4
  %37 = sitofp i32 %36 to double
  %38 = fdiv double %35, %37
  store double %38, double* %9, align 8
  %39 = getelementptr inbounds [500 x i32], [500 x i32]* %6, i64 0, i64 0
  %40 = load i32, i32* %39, align 16
  %41 = getelementptr inbounds [300 x i32], [300 x i32]* %7, i64 0, i64 0
  store i32 %40, i32* %41, align 16
  %42 = load double, double* %9, align 8
  %43 = getelementptr inbounds [300 x i32], [300 x i32]* %7, i64 0, i64 0
  %44 = load i32, i32* %43, align 16
  %45 = sitofp i32 %44 to double
  %46 = fsub double %42, %45
  store double %46, double* %10, align 8
  %47 = load double, double* %10, align 8
  %48 = fcmp olt double %47, 0.000000e+00
  br i1 %48, label %49, label %52

49:                                               ; preds = %34
  %50 = load double, double* %10, align 8
  %51 = fneg double %50
  store double %51, double* %10, align 8
  br label %52

52:                                               ; preds = %49, %34
  store i32 1, i32* %2, align 4
  br label %53

53:                                               ; preds = %97, %52
  %54 = load i32, i32* %2, align 4
  %55 = load i32, i32* %1, align 4
  %56 = icmp slt i32 %54, %55
  br i1 %56, label %57, label %100

57:                                               ; preds = %53
  %58 = load double, double* %9, align 8
  %59 = load i32, i32* %2, align 4
  %60 = sext i32 %59 to i64
  %61 = getelementptr inbounds [500 x i32], [500 x i32]* %6, i64 0, i64 %60
  %62 = load i32, i32* %61, align 4
  %63 = sitofp i32 %62 to double
  %64 = fsub double %58, %63
  store double %64, double* %11, align 8
  %65 = load double, double* %11, align 8
  %66 = fcmp olt double %65, 0.000000e+00
  br i1 %66, label %67, label %70

67:                                               ; preds = %57
  %68 = load double, double* %11, align 8
  %69 = fneg double %68
  store double %69, double* %11, align 8
  br label %70

70:                                               ; preds = %67, %57
  %71 = load double, double* %11, align 8
  %72 = load double, double* %10, align 8
  %73 = fcmp ogt double %71, %72
  br i1 %73, label %74, label %81

74:                                               ; preds = %70
  %75 = load i32, i32* %2, align 4
  %76 = sext i32 %75 to i64
  %77 = getelementptr inbounds [500 x i32], [500 x i32]* %6, i64 0, i64 %76
  %78 = load i32, i32* %77, align 4
  %79 = getelementptr inbounds [300 x i32], [300 x i32]* %7, i64 0, i64 0
  store i32 %78, i32* %79, align 16
  %80 = load double, double* %11, align 8
  store double %80, double* %10, align 8
  br label %96

81:                                               ; preds = %70
  %82 = load double, double* %11, align 8
  %83 = load double, double* %10, align 8
  %84 = fcmp oeq double %82, %83
  br i1 %84, label %85, label %95

85:                                               ; preds = %81
  %86 = load i32, i32* %2, align 4
  %87 = sext i32 %86 to i64
  %88 = getelementptr inbounds [500 x i32], [500 x i32]* %6, i64 0, i64 %87
  %89 = load i32, i32* %88, align 4
  %90 = load i32, i32* %3, align 4
  %91 = sext i32 %90 to i64
  %92 = getelementptr inbounds [300 x i32], [300 x i32]* %7, i64 0, i64 %91
  store i32 %89, i32* %92, align 4
  %93 = load i32, i32* %3, align 4
  %94 = add nsw i32 %93, 1
  store i32 %94, i32* %3, align 4
  br label %95

95:                                               ; preds = %85, %81
  br label %96

96:                                               ; preds = %95, %74
  br label %97

97:                                               ; preds = %96
  %98 = load i32, i32* %2, align 4
  %99 = add nsw i32 %98, 1
  store i32 %99, i32* %2, align 4
  br label %53

100:                                              ; preds = %53
  %101 = load i32, i32* %3, align 4
  %102 = icmp eq i32 %101, 1
  br i1 %102, label %103, label %107

103:                                              ; preds = %100
  %104 = getelementptr inbounds [300 x i32], [300 x i32]* %7, i64 0, i64 0
  %105 = load i32, i32* %104, align 16
  %106 = call i32 (i8*, ...) @printf(i8* getelementptr inbounds ([3 x i8], [3 x i8]* @.str, i64 0, i64 0), i32 %105)
  br label %183

107:                                              ; preds = %100
  store i32 0, i32* %2, align 4
  br label %108

108:                                              ; preds = %155, %107
  %109 = load i32, i32* %2, align 4
  %110 = load i32, i32* %3, align 4
  %111 = sub nsw i32 %110, 1
  %112 = icmp slt i32 %109, %111
  br i1 %112, label %113, label %158

113:                                              ; preds = %108
  store i32 0, i32* %4, align 4
  br label %114

114:                                              ; preds = %151, %113
  %115 = load i32, i32* %4, align 4
  %116 = load i32, i32* %3, align 4
  %117 = sub nsw i32 %116, 1
  %118 = load i32, i32* %2, align 4
  %119 = sub nsw i32 %117, %118
  %120 = icmp slt i32 %115, %119
  br i1 %120, label %121, label %154

121:                                              ; preds = %114
  %122 = load i32, i32* %4, align 4
  %123 = sext i32 %122 to i64
  %124 = getelementptr inbounds [300 x i32], [300 x i32]* %7, i64 0, i64 %123
  %125 = load i32, i32* %124, align 4
  %126 = load i32, i32* %4, align 4
  %127 = add nsw i32 %126, 1
  %128 = sext i32 %127 to i64
  %129 = getelementptr inbounds [300 x i32], [300 x i32]* %7, i64 0, i64 %128
  %130 = load i32, i32* %129, align 4
  %131 = icmp sgt i32 %125, %130
  br i1 %131, label %132, label %150

132:                                              ; preds = %121
  %133 = load i32, i32* %4, align 4
  %134 = sext i32 %133 to i64
  %135 = getelementptr inbounds [300 x i32], [300 x i32]* %7, i64 0, i64 %134
  %136 = load i32, i32* %135, align 4
  store i32 %136, i32* %5, align 4
  %137 = load i32, i32* %4, align 4
  %138 = add nsw i32 %137, 1
  %139 = sext i32 %138 to i64
  %140 = getelementptr inbounds [300 x i32], [300 x i32]* %7, i64 0, i64 %139
  %141 = load i32, i32* %140, align 4
  %142 = load i32, i32* %4, align 4
  %143 = sext i32 %142 to i64
  %144 = getelementptr inbounds [300 x i32], [300 x i32]* %7, i64 0, i64 %143
  store i32 %141, i32* %144, align 4
  %145 = load i32, i32* %5, align 4
  %146 = load i32, i32* %4, align 4
  %147 = add nsw i32 %146, 1
  %148 = sext i32 %147 to i64
  %149 = getelementptr inbounds [300 x i32], [300 x i32]* %7, i64 0, i64 %148
  store i32 %145, i32* %149, align 4
  br label %150

150:                                              ; preds = %132, %121
  br label %151

151:                                              ; preds = %150
  %152 = load i32, i32* %4, align 4
  %153 = add nsw i32 %152, 1
  store i32 %153, i32* %4, align 4
  br label %114

154:                                              ; preds = %114
  br label %155

155:                                              ; preds = %154
  %156 = load i32, i32* %2, align 4
  %157 = add nsw i32 %156, 1
  store i32 %157, i32* %2, align 4
  br label %108

158:                                              ; preds = %108
  store i32 0, i32* %2, align 4
  br label %159

159:                                              ; preds = %179, %158
  %160 = load i32, i32* %2, align 4
  %161 = load i32, i32* %3, align 4
  %162 = icmp slt i32 %160, %161
  br i1 %162, label %163, label %182

163:                                              ; preds = %159
  %164 = load i32, i32* %2, align 4
  %165 = icmp eq i32 %164, 0
  br i1 %165, label %166, label %172

166:                                              ; preds = %163
  %167 = load i32, i32* %2, align 4
  %168 = sext i32 %167 to i64
  %169 = getelementptr inbounds [300 x i32], [300 x i32]* %7, i64 0, i64 %168
  %170 = load i32, i32* %169, align 4
  %171 = call i32 (i8*, ...) @printf(i8* getelementptr inbounds ([3 x i8], [3 x i8]* @.str, i64 0, i64 0), i32 %170)
  br label %178

172:                                              ; preds = %163
  %173 = load i32, i32* %2, align 4
  %174 = sext i32 %173 to i64
  %175 = getelementptr inbounds [300 x i32], [300 x i32]* %7, i64 0, i64 %174
  %176 = load i32, i32* %175, align 4
  %177 = call i32 (i8*, ...) @printf(i8* getelementptr inbounds ([4 x i8], [4 x i8]* @.str.1, i64 0, i64 0), i32 %176)
  br label %178

178:                                              ; preds = %172, %166
  br label %179

179:                                              ; preds = %178
  %180 = load i32, i32* %2, align 4
  %181 = add nsw i32 %180, 1
  store i32 %181, i32* %2, align 4
  br label %159

182:                                              ; preds = %159
  br label %183

183:                                              ; preds = %182, %103
  ret void
}

; Function Attrs: argmemonly nounwind willreturn
declare void @llvm.memset.p0i8.i64(i8* nocapture writeonly, i8, i64, i1 immarg) #1

declare dso_local i32 @__isoc99_scanf(i8*, ...) #2

declare dso_local i32 @printf(i8*, ...) #2


!llvm.module.flags = !{!0}
!llvm.ident = !{!1}

!0 = !{i32 1, !"wchar_size", i32 4}
!1 = !{!"clang version 10.0.0-4ubuntu1 "}
